target datalayout = "e-m:e-p270:32:32-p271:32:32-p272:64:64-i64:64-i128:128-f80:128-n8:16:32:64-S128"
target triple = "x86_64-pc-linux-gnu"

%struct.Abc_Ntk_t_ = type { i32, i32, ptr, ptr, ptr, ptr, ptr, ptr, ptr, ptr, ptr, ptr, ptr, [11 x i32], i32, i32, i32, i32, ptr, i32, ptr, ptr, i32, i32, i32, double, i32, %struct.Vec_Int_t_, ptr, ptr, ptr, ptr, ptr, float, i32, ptr, ptr, ptr, ptr, ptr, ptr, ptr, ptr, ptr, ptr, ptr, ptr, ptr, ptr, ptr, ptr, ptr, ptr, ptr, ptr, ptr, ptr }
%struct.Vec_Int_t_ = type { i32, i32, ptr }
%struct.Abc_Obj_t_ = type { ptr, ptr, i32, i32, %struct.Vec_Int_t_, %struct.Vec_Int_t_, %union.anon, %union.anon.0 }
%union.anon = type { ptr }
%union.anon.0 = type { ptr }
%struct.Vec_Ptr_t_ = type { i32, i32, ptr }

@.str = private unnamed_addr constant [17 x i8] c"After mitering:\0A\00", align 1
@.str.1 = private unnamed_addr constant [35 x i8] c"Logic:  Nodes = %5d. Copy = %5d. \0A\00", align 1
@.str.2 = private unnamed_addr constant [35 x i8] c"Orig:   Nodes = %5d. Copy = %5d. \0A\00", align 1
@.str.3 = private unnamed_addr constant [17 x i8] c"After fraiging:\0A\00", align 1

; Function Attrs: inlinehint nounwind uwtable
define internal ptr @Vec_PtrEntry(ptr noundef %0, i32 noundef %1) #3 {
  %3 = alloca ptr, align 8
  %4 = alloca i32, align 4
  store ptr %0, ptr %3, align 8, !tbaa !42
  store i32 %1, ptr %4, align 4, !tbaa !10
  %5 = load ptr, ptr %3, align 8, !tbaa !42
  %6 = getelementptr inbounds nuw %struct.Vec_Ptr_t_, ptr %5, i32 0, i32 2
  %7 = load ptr, ptr %6, align 8, !tbaa !45
  %8 = load i32, ptr %4, align 4, !tbaa !10
  %9 = sext i32 %8 to i64
  %10 = getelementptr inbounds ptr, ptr %7, i64 %9
  %11 = load ptr, ptr %10, align 8, !tbaa !46
  ret ptr %11
}

; Function Attrs: inlinehint nounwind uwtable
define internal ptr @Abc_ObjNotCond(ptr noundef %0, i32 noundef %1) #3 {
  %3 = alloca ptr, align 8
  %4 = alloca i32, align 4
  store ptr %0, ptr %3, align 8, !tbaa !29
  store i32 %1, ptr %4, align 4, !tbaa !10
  %5 = load ptr, ptr %3, align 8, !tbaa !29
  %6 = ptrtoint ptr %5 to i64
  %7 = load i32, ptr %4, align 4, !tbaa !10
  %8 = icmp ne i32 %7, 0
  %9 = zext i1 %8 to i32
  %10 = sext i32 %9 to i64
  %11 = xor i64 %6, %10
  %12 = inttoptr i64 %11 to ptr
  ret ptr %12
}

; Function Attrs: inlinehint nounwind uwtable
define internal i32 @Abc_ObjIsComplement(ptr noundef %0) #3 {
  %2 = alloca ptr, align 8
  store ptr %0, ptr %2, align 8, !tbaa !29
  %3 = load ptr, ptr %2, align 8, !tbaa !29
  %4 = ptrtoint ptr %3 to i64
  %5 = and i64 %4, 1
  %6 = trunc i64 %5 to i32
  ret i32 %6
}

; Function Attrs: inlinehint nounwind uwtable
define internal ptr @Abc_ObjRegular(ptr noundef %0) #3 {
  %2 = alloca ptr, align 8
  store ptr %0, ptr %2, align 8, !tbaa !29
  %3 = load ptr, ptr %2, align 8, !tbaa !29
  %4 = ptrtoint ptr %3 to i64
  %5 = and i64 %4, -2
  %6 = inttoptr i64 %5 to ptr
  ret ptr %6
}

; Function Attrs: inlinehint nounwind uwtable
define internal i32 @Abc_ObjIsNode(ptr noundef %0) #3 {
  %2 = alloca ptr, align 8
  store ptr %0, ptr %2, align 8, !tbaa !29
  %3 = load ptr, ptr %2, align 8, !tbaa !29
  %4 = getelementptr inbounds nuw %struct.Abc_Obj_t_, ptr %3, i32 0, i32 3
  %5 = load i32, ptr %4, align 4
  %6 = and i32 %5, 15
  %7 = icmp eq i32 %6, 7
  %8 = zext i1 %7 to i32
  ret i32 %8
}

; Function Attrs: inlinehint nounwind uwtable
define internal ptr @Abc_NtkObj(ptr noundef %0, i32 noundef %1) #3 {
  %3 = alloca ptr, align 8
  %4 = alloca i32, align 4
  store ptr %0, ptr %3, align 8, !tbaa !3
  store i32 %1, ptr %4, align 4, !tbaa !10
  %5 = load ptr, ptr %3, align 8, !tbaa !3
  %6 = getelementptr inbounds nuw %struct.Abc_Ntk_t_, ptr %5, i32 0, i32 5
  %7 = load ptr, ptr %6, align 8, !tbaa !14
  %8 = load i32, ptr %4, align 4, !tbaa !10
  %9 = call ptr @Vec_PtrEntry(ptr noundef %7, i32 noundef %8)
  ret ptr %9
}

; Function Attrs: inlinehint nounwind uwtable
define internal i32 @Vec_PtrSize(ptr noundef %0) #3 {
  %2 = alloca ptr, align 8
  store ptr %0, ptr %2, align 8, !tbaa !42
  %3 = load ptr, ptr %2, align 8, !tbaa !42
  %4 = getelementptr inbounds nuw %struct.Vec_Ptr_t_, ptr %3, i32 0, i32 1
  %5 = load i32, ptr %4, align 4, !tbaa !43
  ret i32 %5
}

; Function Attrs: nounwind uwtable
define internal ptr @Abc_NtkDressDeriveMapping(ptr noundef %0) #0 {
  %2 = alloca ptr, align 8
  %3 = alloca ptr, align 8
  %4 = alloca ptr, align 8
  %5 = alloca ptr, align 8
  %6 = alloca ptr, align 8
  %7 = alloca i32, align 4
  store ptr %0, ptr %2, align 8, !tbaa !3
  call void @llvm.lifetime.start.p0(i64 8, ptr %3) #4
  call void @llvm.lifetime.start.p0(i64 8, ptr %4) #4
  call void @llvm.lifetime.start.p0(i64 8, ptr %5) #4
  call void @llvm.lifetime.start.p0(i64 8, ptr %6) #4
  call void @llvm.lifetime.start.p0(i64 4, ptr %7) #4
  %8 = call ptr @stmm_init_table(ptr noundef @stmm_ptrcmp, ptr noundef @stmm_ptrhash)
  store ptr %8, ptr %3, align 8, !tbaa !12
  store i32 0, ptr %7, align 4, !tbaa !10
  br label %9

9:                                                ; preds = %52, %1
  %10 = load i32, ptr %7, align 4, !tbaa !10
  %11 = load ptr, ptr %2, align 8, !tbaa !3
  %12 = getelementptr inbounds nuw %struct.Abc_Ntk_t_, ptr %11, i32 0, i32 5
  %13 = load ptr, ptr %12, align 8, !tbaa !14
  %14 = call i32 @Vec_PtrSize(ptr noundef %13)
  %15 = icmp slt i32 %10, %14
  br i1 %15, label %16, label %20

16:                                               ; preds = %9
  %17 = load ptr, ptr %2, align 8, !tbaa !3
  %18 = load i32, ptr %7, align 4, !tbaa !10
  %19 = call ptr @Abc_NtkObj(ptr noundef %17, i32 noundef %18)
  store ptr %19, ptr %4, align 8, !tbaa !29
  br label %20

20:                                               ; preds = %16, %9
  %21 = phi i1 [ false, %9 ], [ true, %16 ]
  br i1 %21, label %22, label %55

22:                                               ; preds = %20
  %23 = load ptr, ptr %4, align 8, !tbaa !29
  %24 = icmp eq ptr %23, null
  br i1 %24, label %29, label %25

25:                                               ; preds = %22
  %26 = load ptr, ptr %4, align 8, !tbaa !29
  %27 = call i32 @Abc_ObjIsNode(ptr noundef %26)
  %28 = icmp ne i32 %27, 0
  br i1 %28, label %30, label %29

29:                                               ; preds = %25, %22
  br label %51

30:                                               ; preds = %25
  %31 = load ptr, ptr %4, align 8, !tbaa !29
  %32 = getelementptr inbounds nuw %struct.Abc_Obj_t_, ptr %31, i32 0, i32 7
  %33 = load ptr, ptr %32, align 8, !tbaa !31
  %34 = call ptr @Abc_ObjRegular(ptr noundef %33)
  store ptr %34, ptr %6, align 8, !tbaa !29
  %35 = load ptr, ptr %3, align 8, !tbaa !12
  %36 = load ptr, ptr %6, align 8, !tbaa !29
  %37 = call i32 @stmm_lookup(ptr noundef %35, ptr noundef %36, ptr noundef null)
  %38 = icmp ne i32 %37, 0
  br i1 %38, label %39, label %40

39:                                               ; preds = %30
  br label %52

40:                                               ; preds = %30
  %41 = load ptr, ptr %4, align 8, !tbaa !29
  %42 = load ptr, ptr %4, align 8, !tbaa !29
  %43 = getelementptr inbounds nuw %struct.Abc_Obj_t_, ptr %42, i32 0, i32 7
  %44 = load ptr, ptr %43, align 8, !tbaa !31
  %45 = call i32 @Abc_ObjIsComplement(ptr noundef %44)
  %46 = call ptr @Abc_ObjNotCond(ptr noundef %41, i32 noundef %45)
  store ptr %46, ptr %5, align 8, !tbaa !29
  %47 = load ptr, ptr %3, align 8, !tbaa !12
  %48 = load ptr, ptr %6, align 8, !tbaa !29
  %49 = load ptr, ptr %5, align 8, !tbaa !29
  %50 = call i32 @stmm_insert(ptr noundef %47, ptr noundef %48, ptr noundef %49)
  br label %51

51:                                               ; preds = %40, %29
  br label %52

52:                                               ; preds = %51, %39
  %53 = load i32, ptr %7, align 4, !tbaa !10
  %54 = add nsw i32 %53, 1
  store i32 %54, ptr %7, align 4, !tbaa !10
  br label %9, !llvm.loop !32

55:                                               ; preds = %20
  %56 = load ptr, ptr %3, align 8, !tbaa !12
  call void @llvm.lifetime.end.p0(i64 4, ptr %7) #4
  call void @llvm.lifetime.end.p0(i64 8, ptr %6) #4
  call void @llvm.lifetime.end.p0(i64 8, ptr %5) #4
  call void @llvm.lifetime.end.p0(i64 8, ptr %4) #4
  call void @llvm.lifetime.end.p0(i64 8, ptr %3) #4
  ret ptr %56
}

; Function Attrs: inlinehint nounwind uwtable
define internal i32 @Abc_NtkNodeNum(ptr noundef %0) #3 {
  %2 = alloca ptr, align 8
  store ptr %0, ptr %2, align 8, !tbaa !3
  %3 = load ptr, ptr %2, align 8, !tbaa !3
  %4 = getelementptr inbounds nuw %struct.Abc_Ntk_t_, ptr %3, i32 0, i32 13
  %5 = getelementptr inbounds [11 x i32], ptr %4, i64 0, i64 7
  %6 = load i32, ptr %5, align 4, !tbaa !10
  ret i32 %6
}

; Function Attrs: nounwind uwtable
define void @Abc_NtkDress(ptr noundef %0, ptr noundef %1, i32 noundef %2) #0 {
  %4 = alloca ptr, align 8
  %5 = alloca ptr, align 8
  %6 = alloca i32, align 4
  %7 = alloca ptr, align 8
  %8 = alloca ptr, align 8
  %9 = alloca ptr, align 8
  %10 = alloca ptr, align 8
  %11 = alloca ptr, align 8
  %12 = alloca i32, align 4
  store ptr %0, ptr %4, align 8, !tbaa !3
  store ptr %1, ptr %5, align 8, !tbaa !8
  store i32 %2, ptr %6, align 4, !tbaa !10
  call void @llvm.lifetime.start.p0(i64 8, ptr %7) #4
  call void @llvm.lifetime.start.p0(i64 8, ptr %8) #4
  call void @llvm.lifetime.start.p0(i64 8, ptr %9) #4
  call void @llvm.lifetime.start.p0(i64 8, ptr %10) #4
  call void @llvm.lifetime.start.p0(i64 8, ptr %11) #4
  %13 = load ptr, ptr %5, align 8, !tbaa !8
  %14 = load ptr, ptr %5, align 8, !tbaa !8
  %15 = call i32 @Io_ReadFileType(ptr noundef %14)
  %16 = call ptr @Io_ReadNetlist(ptr noundef %13, i32 noundef %15, i32 noundef 1)
  store ptr %16, ptr %7, align 8, !tbaa !3
  %17 = load ptr, ptr %7, align 8, !tbaa !3
  %18 = icmp eq ptr %17, null
  br i1 %18, label %19, label %20

19:                                               ; preds = %3
  store i32 1, ptr %12, align 4
  br label %83

20:                                               ; preds = %3
  %21 = load ptr, ptr %4, align 8, !tbaa !3
  call void @Abc_NtkCleanCopy(ptr noundef %21)
  %22 = load ptr, ptr %7, align 8, !tbaa !3
  call void @Abc_NtkCleanCopy(ptr noundef %22)
  %23 = load ptr, ptr %7, align 8, !tbaa !3
  %24 = call ptr @Abc_NtkToLogic(ptr noundef %23)
  store ptr %24, ptr %8, align 8, !tbaa !3
  %25 = load ptr, ptr %4, align 8, !tbaa !3
  %26 = load ptr, ptr %8, align 8, !tbaa !3
  %27 = call i32 @Abc_NtkCompareSignals(ptr noundef %25, ptr noundef %26, i32 noundef 1, i32 noundef 1)
  %28 = icmp ne i32 %27, 0
  br i1 %28, label %32, label %29

29:                                               ; preds = %20
  %30 = load ptr, ptr %7, align 8, !tbaa !3
  call void @Abc_NtkDelete(ptr noundef %30)
  %31 = load ptr, ptr %8, align 8, !tbaa !3
  call void @Abc_NtkDelete(ptr noundef %31)
  store i32 1, ptr %12, align 4
  br label %83

32:                                               ; preds = %20
  %33 = load ptr, ptr %4, align 8, !tbaa !3
  %34 = call ptr @Abc_NtkStrash(ptr noundef %33, i32 noundef 1, i32 noundef 0, i32 noundef 0)
  store ptr %34, ptr %9, align 8, !tbaa !3
  %35 = load ptr, ptr %9, align 8, !tbaa !3
  %36 = load ptr, ptr %8, align 8, !tbaa !3
  %37 = call i32 @Abc_NtkAppend(ptr noundef %35, ptr noundef %36, i32 noundef 1)
  %38 = load ptr, ptr %7, align 8, !tbaa !3
  call void @Abc_NtkTransferCopy(ptr noundef %38)
  %39 = load ptr, ptr %8, align 8, !tbaa !3
  call void @Abc_NtkDelete(ptr noundef %39)
  %40 = load i32, ptr %6, align 4, !tbaa !10
  %41 = icmp ne i32 %40, 0
  br i1 %41, label %42, label %54

42:                                               ; preds = %32
  %43 = call i32 (ptr, ...) @printf(ptr noundef @.str)
  %44 = load ptr, ptr %4, align 8, !tbaa !3
  %45 = call i32 @Abc_NtkNodeNum(ptr noundef %44)
  %46 = load ptr, ptr %4, align 8, !tbaa !3
  %47 = call i32 @Abc_NtkCountCopy(ptr noundef %46)
  %48 = call i32 (ptr, ...) @printf(ptr noundef @.str.1, i32 noundef %45, i32 noundef %47)
  %49 = load ptr, ptr %7, align 8, !tbaa !3
  %50 = call i32 @Abc_NtkNodeNum(ptr noundef %49)
  %51 = load ptr, ptr %7, align 8, !tbaa !3
  %52 = call i32 @Abc_NtkCountCopy(ptr noundef %51)
  %53 = call i32 (ptr, ...) @printf(ptr noundef @.str.2, i32 noundef %50, i32 noundef %52)
  br label %54

54:                                               ; preds = %42, %32
  %55 = load ptr, ptr %9, align 8, !tbaa !3
  %56 = call ptr @Abc_NtkIvyFraig(ptr noundef %55, i32 noundef 100, i32 noundef 1, i32 noundef 0, i32 noundef 1, i32 noundef 0)
  store ptr %56, ptr %10, align 8, !tbaa !3
  %57 = load ptr, ptr %4, align 8, !tbaa !3
  call void @Abc_NtkTransferCopy(ptr noundef %57)
  %58 = load ptr, ptr %7, align 8, !tbaa !3
  call void @Abc_NtkTransferCopy(ptr noundef %58)
  %59 = load ptr, ptr %9, align 8, !tbaa !3
  call void @Abc_NtkDelete(ptr noundef %59)
  %60 = load i32, ptr %6, align 4, !tbaa !10
  %61 = icmp ne i32 %60, 0
  br i1 %61, label %62, label %74

62:                                               ; preds = %54
  %63 = call i32 (ptr, ...) @printf(ptr noundef @.str.3)
  %64 = load ptr, ptr %4, align 8, !tbaa !3
  %65 = call i32 @Abc_NtkNodeNum(ptr noundef %64)
  %66 = load ptr, ptr %4, align 8, !tbaa !3
  %67 = call i32 @Abc_NtkCountCopy(ptr noundef %66)
  %68 = call i32 (ptr, ...) @printf(ptr noundef @.str.1, i32 noundef %65, i32 noundef %67)
  %69 = load ptr, ptr %7, align 8, !tbaa !3
  %70 = call i32 @Abc_NtkNodeNum(ptr noundef %69)
  %71 = load ptr, ptr %7, align 8, !tbaa !3
  %72 = call i32 @Abc_NtkCountCopy(ptr noundef %71)
  %73 = call i32 (ptr, ...) @printf(ptr noundef @.str.2, i32 noundef %70, i32 noundef %72)
  br label %74

74:                                               ; preds = %62, %54
  %75 = load ptr, ptr %7, align 8, !tbaa !3
  %76 = call ptr @Abc_NtkDressDeriveMapping(ptr noundef %75)
  store ptr %76, ptr %11, align 8, !tbaa !12
  %77 = load ptr, ptr %4, align 8, !tbaa !3
  %78 = load ptr, ptr %11, align 8, !tbaa !12
  %79 = load i32, ptr %6, align 4, !tbaa !10
  call void @Abc_NtkDressTransferNames(ptr noundef %77, ptr noundef %78, i32 noundef %79)
  %80 = load ptr, ptr %11, align 8, !tbaa !12
  call void @stmm_free_table(ptr noundef %80)
  %81 = load ptr, ptr %10, align 8, !tbaa !3
  call void @Abc_NtkDelete(ptr noundef %81)
  %82 = load ptr, ptr %7, align 8, !tbaa !3
  call void @Abc_NtkDelete(ptr noundef %82)
  store i32 0, ptr %12, align 4
  br label %83

83:                                               ; preds = %74, %29, %19
  call void @llvm.lifetime.end.p0(i64 8, ptr %11) #4
  call void @llvm.lifetime.end.p0(i64 8, ptr %10) #4
  call void @llvm.lifetime.end.p0(i64 8, ptr %9) #4
  call void @llvm.lifetime.end.p0(i64 8, ptr %8) #4
  call void @llvm.lifetime.end.p0(i64 8, ptr %7) #4
  %84 = load i32, ptr %12, align 4
  switch i32 %84, label %86 [
    i32 0, label %85
    i32 1, label %85
  ]

85:                                               ; preds = %83, %83
  ret void

86:                                               ; preds = %83
  unreachable
}