; Function Attrs: nounwind uwtable
define void @Abc_NtkDress(ptr noundef %0, ptr noundef %1, i32 noundef %2) local_unnamed_addr #0 {
  %4 = tail call i32 @Io_ReadFileType(ptr noundef %1) #5
  %5 = tail call ptr @Io_ReadNetlist(ptr noundef %1, i32 noundef %4, i32 noundef 1) #5
  %6 = icmp eq ptr %5, null
  br i1 %6, label %96, label %7

7:                                                ; preds = %3
  tail call void @Abc_NtkCleanCopy(ptr noundef %0) #5
  tail call void @Abc_NtkCleanCopy(ptr noundef nonnull %5) #5
  %8 = tail call ptr @Abc_NtkToLogic(ptr noundef nonnull %5) #5
  %9 = tail call i32 @Abc_NtkCompareSignals(ptr noundef %0, ptr noundef %8, i32 noundef 1, i32 noundef 1) #5
  %.not = icmp eq i32 %9, 0
  br i1 %.not, label %.sink.split, label %10

10:                                               ; preds = %7
  %11 = tail call ptr @Abc_NtkStrash(ptr noundef %0, i32 noundef 1, i32 noundef 0, i32 noundef 0) #5
  %12 = tail call i32 @Abc_NtkAppend(ptr noundef %11, ptr noundef %8, i32 noundef 1) #5
  tail call void @Abc_NtkTransferCopy(ptr noundef nonnull %5) #5
  tail call void @Abc_NtkDelete(ptr noundef %8) #5
  %.not38 = icmp eq i32 %2, 0
  br i1 %.not38, label %20, label %13

13:                                               ; preds = %10
  %puts = tail call i32 @puts(ptr nonnull dereferenceable(1) @str)
  %14 = getelementptr i8, ptr %0, i64 124
  %.val = load i32, ptr %14, align 4, !tbaa !3
  %15 = tail call i32 @Abc_NtkCountCopy(ptr noundef %0) #5
  %16 = tail call i32 (ptr, ...) @printf(ptr noundef nonnull dereferenceable(1) @.str.1, i32 noundef %.val, i32 noundef %15)
  %17 = getelementptr i8, ptr %5, i64 124
  %.val40 = load i32, ptr %17, align 4, !tbaa !3
  %18 = tail call i32 @Abc_NtkCountCopy(ptr noundef nonnull %5) #5
  %19 = tail call i32 (ptr, ...) @printf(ptr noundef nonnull dereferenceable(1) @.str.2, i32 noundef %.val40, i32 noundef %18)
  br label %20

20:                                               ; preds = %13, %10
  %21 = tail call ptr @Abc_NtkIvyFraig(ptr noundef %11, i32 noundef 100, i32 noundef 1, i32 noundef 0, i32 noundef 1, i32 noundef 0) #5
  tail call void @Abc_NtkTransferCopy(ptr noundef %0) #5
  tail call void @Abc_NtkTransferCopy(ptr noundef nonnull %5) #5
  tail call void @Abc_NtkDelete(ptr noundef %11) #5
  br i1 %.not38, label %.split, label %.split36

.split:                                           ; preds = %20
  %22 = tail call ptr @stmm_init_table(ptr noundef nonnull @stmm_ptrcmp, ptr noundef nonnull @stmm_ptrhash) #5
  %23 = getelementptr inbounds nuw i8, ptr %5, i64 32
  %24 = load ptr, ptr %23, align 8, !tbaa !7
  %25 = getelementptr i8, ptr %24, i64 4
  %.val19.i = load i32, ptr %25, align 4, !tbaa !25
  %26 = icmp sgt i32 %.val19.i, 0
  br i1 %26, label %.lr.ph.i, label %Abc_NtkDressDeriveMapping.exit

.lr.ph.i:                                         ; preds = %.split, %50
  %indvars.iv.i = phi i64 [ %indvars.iv.next.i, %50 ], [ 0, %.split ]
  %27 = phi ptr [ %51, %50 ], [ %24, %.split ]
  %28 = getelementptr i8, ptr %27, i64 8
  %.val17.val.i = load ptr, ptr %28, align 8, !tbaa !27
  %29 = getelementptr inbounds nuw ptr, ptr %.val17.val.i, i64 %indvars.iv.i
  %30 = load ptr, ptr %29, align 8, !tbaa !28
  %31 = icmp eq ptr %30, null
  br i1 %31, label %50, label %32

32:                                               ; preds = %.lr.ph.i
  %33 = getelementptr i8, ptr %30, i64 20
  %.val18.i = load i32, ptr %33, align 4
  %34 = and i32 %.val18.i, 15
  %.not.i = icmp eq i32 %34, 7
  br i1 %.not.i, label %35, label %50

35:                                               ; preds = %32
  %36 = getelementptr inbounds nuw i8, ptr %30, i64 64
  %37 = load ptr, ptr %36, align 8, !tbaa !29
  %38 = ptrtoint ptr %37 to i64
  %39 = and i64 %38, -2
  %40 = inttoptr i64 %39 to ptr
  %41 = tail call i32 @stmm_lookup(ptr noundef %22, ptr noundef %40, ptr noundef null) #5
  %.not16.i = icmp eq i32 %41, 0
  br i1 %.not16.i, label %42, label %50

42:                                               ; preds = %35
  %43 = load ptr, ptr %36, align 8, !tbaa !29
  %44 = ptrtoint ptr %43 to i64
  %45 = and i64 %44, 1
  %46 = ptrtoint ptr %30 to i64
  %47 = xor i64 %45, %46
  %48 = inttoptr i64 %47 to ptr
  %49 = tail call i32 @stmm_insert(ptr noundef %22, ptr noundef %40, ptr noundef %48) #5
  br label %50

50:                                               ; preds = %42, %35, %32, %.lr.ph.i
  %indvars.iv.next.i = add nuw nsw i64 %indvars.iv.i, 1
  %51 = load ptr, ptr %23, align 8, !tbaa !7
  %52 = getelementptr i8, ptr %51, i64 4
  %.val.i = load i32, ptr %52, align 4, !tbaa !25
  %53 = sext i32 %.val.i to i64
  %54 = icmp slt i64 %indvars.iv.next.i, %53
  br i1 %54, label %.lr.ph.i, label %Abc_NtkDressDeriveMapping.exit, !llvm.loop !30

Abc_NtkDressDeriveMapping.exit:                   ; preds = %50, %.split
  tail call fastcc void @Abc_NtkDressTransferNames(ptr noundef %0, ptr noundef %22, i32 noundef 0)
  br label %94

.split36:                                         ; preds = %20
  %puts39 = tail call i32 @puts(ptr nonnull dereferenceable(1) @str.1)
  %55 = getelementptr i8, ptr %0, i64 124
  %.val41 = load i32, ptr %55, align 4, !tbaa !3
  %56 = tail call i32 @Abc_NtkCountCopy(ptr noundef %0) #5
  %57 = tail call i32 (ptr, ...) @printf(ptr noundef nonnull dereferenceable(1) @.str.1, i32 noundef %.val41, i32 noundef %56)
  %58 = getelementptr i8, ptr %5, i64 124
  %.val42 = load i32, ptr %58, align 4, !tbaa !3
  %59 = tail call i32 @Abc_NtkCountCopy(ptr noundef nonnull %5) #5
  %60 = tail call i32 (ptr, ...) @printf(ptr noundef nonnull dereferenceable(1) @.str.2, i32 noundef %.val42, i32 noundef %59)
  %61 = tail call ptr @stmm_init_table(ptr noundef nonnull @stmm_ptrcmp, ptr noundef nonnull @stmm_ptrhash) #5
  %62 = getelementptr inbounds nuw i8, ptr %5, i64 32
  %63 = load ptr, ptr %62, align 8, !tbaa !7
  %64 = getelementptr i8, ptr %63, i64 4
  %.val19.i43 = load i32, ptr %64, align 4, !tbaa !25
  %65 = icmp sgt i32 %.val19.i43, 0
  br i1 %65, label %.lr.ph.i44, label %Abc_NtkDressDeriveMapping.exit52

.lr.ph.i44:                                       ; preds = %.split36, %89
  %indvars.iv.i45 = phi i64 [ %indvars.iv.next.i49, %89 ], [ 0, %.split36 ]
  %66 = phi ptr [ %90, %89 ], [ %63, %.split36 ]
  %67 = getelementptr i8, ptr %66, i64 8
  %.val17.val.i46 = load ptr, ptr %67, align 8, !tbaa !27
  %68 = getelementptr inbounds nuw ptr, ptr %.val17.val.i46, i64 %indvars.iv.i45
  %69 = load ptr, ptr %68, align 8, !tbaa !28
  %70 = icmp eq ptr %69, null
  br i1 %70, label %89, label %71

71:                                               ; preds = %.lr.ph.i44
  %72 = getelementptr i8, ptr %69, i64 20
  %.val18.i47 = load i32, ptr %72, align 4
  %73 = and i32 %.val18.i47, 15
  %.not.i48 = icmp eq i32 %73, 7
  br i1 %.not.i48, label %74, label %89

74:                                               ; preds = %71
  %75 = getelementptr inbounds nuw i8, ptr %69, i64 64
  %76 = load ptr, ptr %75, align 8, !tbaa !29
  %77 = ptrtoint ptr %76 to i64
  %78 = and i64 %77, -2
  %79 = inttoptr i64 %78 to ptr
  %80 = tail call i32 @stmm_lookup(ptr noundef %61, ptr noundef %79, ptr noundef null) #5
  %.not16.i51 = icmp eq i32 %80, 0
  br i1 %.not16.i51, label %81, label %89

81:                                               ; preds = %74
  %82 = load ptr, ptr %75, align 8, !tbaa !29
  %83 = ptrtoint ptr %82 to i64
  %84 = and i64 %83, 1
  %85 = ptrtoint ptr %69 to i64
  %86 = xor i64 %84, %85
  %87 = inttoptr i64 %86 to ptr
  %88 = tail call i32 @stmm_insert(ptr noundef %61, ptr noundef %79, ptr noundef %87) #5
  br label %89

89:                                               ; preds = %81, %74, %71, %.lr.ph.i44
  %indvars.iv.next.i49 = add nuw nsw i64 %indvars.iv.i45, 1
  %90 = load ptr, ptr %62, align 8, !tbaa !7
  %91 = getelementptr i8, ptr %90, i64 4
  %.val.i50 = load i32, ptr %91, align 4, !tbaa !25
  %92 = sext i32 %.val.i50 to i64
  %93 = icmp slt i64 %indvars.iv.next.i49, %92
  br i1 %93, label %.lr.ph.i44, label %Abc_NtkDressDeriveMapping.exit52, !llvm.loop !30

Abc_NtkDressDeriveMapping.exit52:                 ; preds = %89, %.split36
  tail call fastcc void @Abc_NtkDressTransferNames(ptr noundef %0, ptr noundef %61, i32 noundef %2)
  br label %94

94:                                               ; preds = %Abc_NtkDressDeriveMapping.exit, %Abc_NtkDressDeriveMapping.exit52
  %95 = phi ptr [ %22, %Abc_NtkDressDeriveMapping.exit ], [ %61, %Abc_NtkDressDeriveMapping.exit52 ]
  tail call void @stmm_free_table(ptr noundef %95) #5
  br label %.sink.split

.sink.split:                                      ; preds = %7, %94
  %.sink53 = phi ptr [ %21, %94 ], [ %5, %7 ]
  %.sink = phi ptr [ %5, %94 ], [ %8, %7 ]
  tail call void @Abc_NtkDelete(ptr noundef %.sink53) #5
  tail call void @Abc_NtkDelete(ptr noundef %.sink) #5
  br label %96

96:                                               ; preds = %.sink.split, %3
  ret void
}